Certificate:
    Data:
        Version: 3 (0x2)
        Serial Number: 1 (0x1)
    Signature Algorithm: sha256WithRSAEncryption
        Issuer: C=AU, ST=Some-State, O=Internet Widgits Pty Ltd
        Validity
            Not Before: May 12 16:41:26 2016 GMT
            Not After : May 12 16:41:26 2017 GMT
        Subject: C=AU, ST=Some-State, O=Internet Widgits Pty Ltd, CN=wifi.example.com
        Subject Public Key Info:
            Public Key Algorithm: rsaEncryption
                Public-Key: (2048 bit)
                Modulus:
                    00:cb:99:ac:1e:97:86:58:56:ad:3c:7c:d8:8a:51:
                    15:56:c6:87:02:1c:f6:7c:6d:9e:d2:86:95:20:9f:
                    44:01:12:57:fd:d0:6f:28:1f:62:23:65:69:9d:0d:
                    69:46:09:8e:37:3b:b9:5f:75:0b:6c:a4:3d:7f:40:
                    31:db:96:88:ff:25:15:11:9a:65:f1:cb:dd:bb:4e:
                    a8:f6:c0:1d:e6:82:f8:1f:1c:9e:f8:cc:49:10:e2:
                    b2:55:d2:08:c1:91:84:8d:11:20:0a:69:23:91:51:
                    1f:5d:4f:4f:27:fd:d6:8b:ea:d8:79:65:02:70:27:
                    5c:ea:96:e0:5f:75:15:a4:99:5e:31:20:20:79:3d:
                    3d:ff:54:48:d2:80:50:83:d5:3f:51:95:16:3a:ee:
                    f5:38:a1:3c:f5:70:97:7c:64:a1:be:d9:c7:b4:9c:
                    4b:e1:0c:a8:5c:6c:cb:24:00:22:8e:2c:4f:87:70:
                    b7:aa:78:1a:f7:fa:59:8c:f2:d2:3a:37:ce:08:35:
                    bf:83:d9:87:9e:67:46:d1:f2:c0:1f:d9:5c:f1:3c:
                    42:93:48:90:31:96:e7:1a:58:b5:04:e8:5e:4b:66:
                    5b:61:85:44:fa:64:39:fa:9f:ed:2d:d8:ec:97:83:
                    5b:ed:db:ac:b0:ac:92:bd:e4:73:13:80:2c:ec:ec:
                    4b:bf
                Exponent: 65537 (0x10001)
        X509v3 extensions:
            X509v3 Extended Key Usage: 
                TLS Web Server Authentication
    Signature Algorithm: sha256WithRSAEncryption
         29:14:d6:05:4e:e0:d3:6f:76:a1:bd:be:47:d7:2d:1e:92:39:
         42:29:76:8d:56:5f:50:9b:19:31:f5:58:f4:1c:48:71:19:1b:
         44:77:7c:11:26:e6:0e:d2:b4:48:9e:73:80:75:39:0a:60:e7:
         3a:39:54:3e:15:1f:67:d4:2c:49:2c:2b:4f:fb:9a:05:ab:2a:
         92:b9:7a:d2:46:57:00:79:92:fc:4b:b2:0c:21:5a:6c:6d:a1:
         1c:f9:36:07:3d:45:2b:ea:03:6c:43:66:2b:95:9e:b8:23:9e:
         7e:c0:a3:5f:d5:9a:c6:20:09:ef:7b:2f:83:31:bb:15:65:5c:
         e2:7c:42:4f:5f:78:29:c1:77:f7:b3:63:95:98:52:8e:79:6e:
         5c:fb:e8:7d:12:27:a3:8d:fa:41:f9:cf:d8:95:d0:ed:9e:ee:
         b5:2c:61:8b:77:37:79:63:df:09:30:7b:5a:66:3b:84:72:53:
         30:9f:5b:bd:ab:ea:b9:c6:0a:7d:07:55:63:f6:25:5e:e7:d6:
         95:d9:d7:b0:c5:f3:08:35:02:33:d6:66:9f:dc:b7:21:82:3b:
         64:77:9a:71:48:36:ba:f6:ea:e5:55:44:81:00:97:0c:e8:e9:
         fb:22:9c:83:dd:91:fb:91:00:c0:9f:d2:36:55:cf:d6:04:79:
         d8:78:81:00
-----BEGIN CERTIFICATE-----
MIIDNzCCAh+gAwIBAgIBATANBgkqhkiG9w0BAQsFADBFMQswCQYDVQQGEwJBVTET
MBEGA1UECAwKU29tZS1TdGF0ZTEhMB8GA1UECgwYSW50ZXJuZXQgV2lkZ2l0cyBQ
dHkgTHRkMB4XDTE2MDUxMjE2NDEyNloXDTE3MDUxMjE2NDEyNlowYDELMAkGA1UE
BhMCQVUxEzARBgNVBAgMClNvbWUtU3RhdGUxITAfBgNVBAoMGEludGVybmV0IFdp
ZGdpdHMgUHR5IEx0ZDEZMBcGA1UEAwwQd2lmaS5leGFtcGxlLmNvbTCCASIwDQYJ
KoZIhvcNAQEBBQADggEPADCCAQoCggEBAMuZrB6XhlhWrTx82IpRFVbGhwIc9nxt
ntKGlSCfRAESV/3QbygfYiNlaZ0NaUYJjjc7uV91C2ykPX9AMduWiP8lFRGaZfHL
3btOqPbAHeaC+B8cnvjMSRDislXSCMGRhI0RIAppI5FRH11PTyf91ovq2HllAnAn
XOqW4F91FaSZXjEgIHk9Pf9USNKAUIPVP1GVFjru9TihPPVwl3xkob7Zx7ScS+EM
qFxsyyQAIo4sT4dwt6p4Gvf6WYzy0jo3zgg1v4PZh55nRtHywB/ZXPE8QpNIkDGW
5xpYtQToXktmW2GFRPpkOfqf7S3Y7JeDW+3brLCskr3kcxOALOzsS78CAwEAAaMX
MBUwEwYDVR0lBAwwCgYIKwYBBQUHAwEwDQYJKoZIhvcNAQELBQADggEBACkU1gVO
4NNvdqG9vkfXLR6SOUIpdo1WX1CbGTH1WPQcSHEZG0R3fBEm5g7StEiec4B1OQpg
5zo5VD4VH2fULEksK0/7mgWrKpK5etJGVwB5kvxLsgwhWmxtoRz5Ngc9RSvqA2xD
ZiuVnrgjnn7Ao1/VmsYgCe97L4MxuxVlXOJ8Qk9feCnBd/ezY5WYUo55blz76H0S
J6ON+kH5z9iV0O2e7rUsYYt3N3lj3wkwe1pmO4RyUzCfW72r6rnGCn0HVWP2JV7n
1pXZ17DF8wg1AjPWZp/ctyGCO2R3mnFINrr26uVVRIEAlwzo6fsinIPdkfuRAMCf
0jZVz9YEedh4gQA=
-----END CERTIFICATE-----
